Certificate:
    Data:
        Version: 3 (0x2)
        Serial Number: 1 (0x1)
        Signature Algorithm: sha1WithRSAEncryption
        Issuer: C=US, O=Netflix, Inc., OU=(c) 2005 Netflix, Inc. - For authorized use only, OU=Electronic Delivery Service, CN=Primary Certification Authority (B1)
        Validity
            Not Before: May 22 16:56:40 2005 GMT
            Not After : Jan  1 00:00:00 2020 GMT
        Subject: C=US, O=Netflix, Inc., OU=(c) 2005 Netflix, Inc. - For authorized use only, OU=Electronic Delivery Service, CN=Primary Certification Authority (B1)
        Subject Public Key Info:
            Public Key Algorithm: rsaEncryption
            RSA Public Key: (2047 bit)
                Modulus (2047 bit):
                    72:87:13:44:c0:7f:40:4e:77:81:bf:25:43:11:4c:
                    ab:4a:31:98:0d:83:3b:e4:e0:fd:5e:68:6d:c5:0d:
                    61:e9:41:f3:e7:94:05:43:00:31:42:9c:a8:17:f8:
                    d3:97:4e:09:85:82:b2:4d:ef:4f:d0:5b:6d:fe:fd:
                    1e:b5:99:5c:66:b7:20:99:25:62:e7:f5:f8:eb:85:
                    1e:58:be:c4:b7:06:b6:8c:62:46:9d:1e:6c:1c:f8:
                    9c:56:25:c1:10:b7:c2:86:4b:8a:ee:62:9f:78:fe:
                    3e:2c:02:e5:74:22:61:c3:e4:dd:08:5d:a3:b2:16:
                    d1:fb:0a:86:62:29:3c:09:15:8c:f4:2c:7a:aa:d9:
                    db:fa:ae:ca:02:b3:dc:bd:56:01:e8:89:b0:ab:39:
                    6a:9e:1a:ed:2d:c2:80:b4:e1:ad:48:69:55:31:c8:
                    9b:68:b1:b4:68:12:f8:bb:62:a0:93:5a:40:86:54:
                    57:86:c0:77:ad:b5:2b:1b:d6:d9:8e:20:1d:11:4d:
                    15:50:77:46:a3:fd:3f:2c:4e:16:3c:e1:c2:df:03:
                    ad:09:b8:7b:41:69:c9:f0:39:f8:9c:cb:d4:03:f4:
                    d2:51:6c:22:b9:04:8e:ad:ad:fa:98:a2:ee:91:48:
                    2f:a7:1f:94:66:35:df:bd:a4:e4:de:a5:67:59:06:
                    01
                Exponent: 65537 (0x10001)
        X509v3 extensions:
            X509v3 Key Usage: critical
                Digital Signature, Certificate Sign, CRL Sign
            X509v3 Basic Constraints: critical
                CA:TRUE, pathlen:2
            X509v3 Subject Key Identifier: 
                59:AF:5B:71:16:8E:82:F0:1B:C4:AA:6D:E9:14:C8:CF:9E:BF:FC:B2
    Signature Algorithm: sha1WithRSAEncryption
        71:49:a0:e4:9e:26:d0:d8:00:4b:a1:b9:5c:37:7e:99:5a:70:
        cb:db:ab:b7:c7:80:6c:8b:75:c1:84:77:3c:47:29:f9:e0:f0:
        d6:4e:61:16:34:1b:4f:75:c6:5e:64:02:01:65:4d:a0:21:8f:
        7f:8b:fd:dc:53:85:ca:36:cb:7c:a2:64:6c:43:89:46:3c:d8:
        f2:87:f3:c9:d9:14:c7:a9:f9:c7:c2:9d:5e:f6:ae:10:66:ba:
        28:7f:28:32:2d:cf:20:c9:98:de:e3:80:7f:8c:8d:04:8a:34:
        b7:68:dc:03:91:08:4b:10:01:fc:a7:34:e7:e3:d2:9d:a8:20:
        10:ae:b7:f0:b1:ef:f8:1e:23:e0:78:fc:73:75:47:15:28:74:
        d8:1a:05:09:ad:f3:24:b7:2d:44:ed:fc:66:87:9b:96:21:a6:
        32:69:25:3e:75:f2:00:bd:5a:8a:a7:76:eb:07:ba:24:7a:2c:
        07:c8:23:44:d0:d7:6e:96:9b:8e:6d:83:41:d6:b2:66:aa:7f:
        a7:d3:b9:bf:20:3e:7a:37:f2:7b:0c:79:cb:80:d0:83:40:65:
        b7:69:d5:2b:cd:42:6c:26:65:48:3d:bf:b7:8e:cc:6f:74:54:
        05:b6:47:c2:81:92:af:63:90:d4:70:9d:4c:e2:27:57:6c:57:
        ac:bc:63:5e
-----BEGIN CERTIFICATE-----
MIIEKjCCAxKgAwIBAgIBATALBgkqhkiG9w0BAQUwgbUxCzAJBgNVBAYTAlVTMRYw
FAYDVQQKEw1OZXRmbGl4LCBJbmMuMTkwNwYDVQQLEzAoYykgMjAwNSBOZXRmbGl4
LCBJbmMuIC0gRm9yIGF1dGhvcml6ZWQgdXNlIG9ubHkxJDAiBgNVBAsTG0VsZWN0
cm9uaWMgRGVsaXZlcnkgU2VydmljZTEtMCsGA1UEAxMkUHJpbWFyeSBDZXJ0aWZp
Y2F0aW9uIEF1dGhvcml0eSAoQjEpMB4XDTA1MDUyMjE2NTY0MFoXDTIwMDEwMTAw
MDAwMFowgbUxCzAJBgNVBAYTAlVTMRYwFAYDVQQKEw1OZXRmbGl4LCBJbmMuMTkw
NwYDVQQLEzAoYykgMjAwNSBOZXRmbGl4LCBJbmMuIC0gRm9yIGF1dGhvcml6ZWQg
dXNlIG9ubHkxJDAiBgNVBAsTG0VsZWN0cm9uaWMgRGVsaXZlcnkgU2VydmljZTEt
MCsGA1UEAxMkUHJpbWFyeSBDZXJ0aWZpY2F0aW9uIEF1dGhvcml0eSAoQjEpMIIB
ITANBgkqhkiG9w0BAQEFAAOCAQ4AMIIBCQKCAQByhxNEwH9ATneBvyVDEUyrSjGY
DYM75OD9XmhtxQ1h6UHz55QFQwAxQpyoF/jTl04JhYKyTe9P0Ftt/v0etZlcZrcg
mSVi5/X464UeWL7Etwa2jGJGnR5sHPicViXBELfChkuK7mKfeP4+LALldCJhw+Td
CF2jshbR+wqGYik8CRWM9Cx6qtnb+q7KArPcvVYB6ImwqzlqnhrtLcKAtOGtSGlV
McibaLG0aBL4u2Kgk1pAhlRXhsB3rbUrG9bZjiAdEU0VUHdGo/0/LE4WPOHC3wOt
Cbh7QWnJ8Dn4nMvUA/TSUWwiuQSOra36mKLukUgvpx+UZjXfvaTk3qVnWQYBAgMB
AAGjRjBEMA8GA1UdDwEB/wQFAwMHhgAwEgYDVR0TAQH/BAgwBgEB/wIBAjAdBgNV
HQ4EFgQUWa9bcRaOgvAbxKpt6RTIz56//LIwDQYJKoZIhvcNAQEFBQADggEBAHFJ
oOSeJtDYAEuhuVw3fplacMvbq7fHgGyLdcGEdzxHKfng8NZOYRY0G091xl5kAgFl
TaAhj3+L/dxThco2y3yiZGxDiUY82PKH88nZFMep+cfCnV72rhBmuih/KDItzyDJ
mN7jgH+MjQSKNLdo3AORCEsQAfynNOfj0p2oIBCut/Cx7/geI+B4/HN1RxUodNga
BQmt8yS3LUTt/GaHm5YhpjJpJT518gC9WoqndusHuiR6LAfII0TQ126Wm45tg0HW
smaqf6fTub8gPno38nsMecuA0INAZbdp1SvNQmwmZUg9v7eOzG90VAW2R8KBkq9j
kNRwnUziJ1dsV6y8Y14=
-----END CERTIFICATE-----

Certificate:
    Data:
        Version: 3 (0x2)
        Serial Number: 2 (0x2)
        Signature Algorithm: sha1WithRSAEncryption
        Issuer: C=US, O=Netflix, Inc., OU=(c) 2005 Netflix, Inc. - For authorized use only, OU=Electronic Delivery Service, CN=Primary Certification Authority (B1)
        Validity
            Not Before: May 22 16:56:48 2005 GMT
            Not After : Jan  1 00:00:00 2020 GMT
        Subject: C=US, O=Netflix, Inc., OU=(c) 2005 Netflix, Inc. - For authorized use only, OU=Electronic Delivery Service, CN=Server Certification Authority (B1)
        Subject Public Key Info:
            Public Key Algorithm: rsaEncryption
            RSA Public Key: (2047 bit)
                Modulus (2047 bit):
                    43:8c:e2:81:68:7e:ed:c8:27:b7:fd:3c:60:7c:49:
                    0b:21:53:24:a6:e0:a5:b3:88:8c:35:33:10:f5:f0:
                    0f:be:7a:98:4b:45:a6:20:cb:03:19:da:95:66:2a:
                    13:3d:a2:1f:12:69:06:a5:4b:b2:68:92:d6:c4:06:
                    82:68:d0:a3:c9:55:4e:24:6c:f8:9f:73:78:95:27:
                    62:50:56:8b:d1:6a:ff:e1:a0:1f:59:30:6d:4a:74:
                    5f:12:bc:25:c3:dc:6d:71:9a:af:02:b9:83:7b:09:
                    83:89:07:a0:1e:0b:2d:12:26:a5:41:95:8f:bf:85:
                    ed:02:9c:0d:f8:3f:0e:a0:3d:1c:70:6c:4b:ea:72:
                    de:86:1e:ec:25:19:45:4c:00:24:83:4c:f7:2e:67:
                    df:77:39:28:57:32:cd:0b:42:a5:c6:29:e2:a5:c2:
                    ef:15:f1:0d:1b:b4:e5:f7:fc:92:d3:d0:73:25:dd:
                    46:82:c7:75:9c:ca:60:e8:5c:4d:28:66:a5:53:8f:
                    9c:e0:f5:ef:3b:37:aa:69:71:f9:e7:44:22:ff:95:
                    9c:b6:a1:74:48:b2:00:1c:86:61:00:ee:f1:a8:5a:
                    71:fe:91:a0:69:e4:9e:57:77:00:fc:7d:89:91:b9:
                    14:13:d9:e8:78:43:0c:63:63:7f:da:47:8f:01:5c:
                    5b
                Exponent: 65537 (0x10001)
        X509v3 extensions:
            X509v3 Key Usage: critical
                Digital Signature, Certificate Sign, CRL Sign
            X509v3 Basic Constraints: critical
                CA:TRUE, pathlen:1
            X509v3 Subject Key Identifier: 
                B7:99:FF:FA:EA:C8:6C:D4:42:EB:80:12:B7:AC:8B:BC:DE:E6:32:7D
    Signature Algorithm: sha1WithRSAEncryption
        70:af:4c:24:a4:46:93:89:a3:e3:30:2e:5d:90:44:cf:d8:21:
        ab:ba:19:37:01:a9:07:2f:79:eb:ce:99:82:15:b6:c1:a9:84:
        8f:0a:ea:a6:74:0e:52:f0:84:85:0d:3f:fc:0a:85:05:ec:bf:
        b3:01:97:bd:1f:c7:32:d7:ff:b7:e7:d0:8f:b9:75:e7:d7:25:
        07:05:27:c7:61:76:3e:59:ea:d0:33:9d:4c:84:4a:15:0d:f3:
        a0:93:fd:f7:81:3f:ac:32:f0:62:0b:db:ca:7b:00:5e:db:f5:
        1b:ce:31:25:0d:04:c5:e3:19:b9:e5:69:0b:50:68:49:03:1e:
        03:6d:8c:1a:6d:d7:df:39:f1:5a:02:de:dd:43:66:da:26:8f:
        59:f1:a4:f9:e0:14:03:97:fb:60:4e:84:91:a9:d0:91:ab:6e:
        88:63:a8:cf:f2:5e:72:cd:f9:a4:a6:14:eb:f1:88:1e:6c:27:
        e2:74:d7:61:89:33:59:7b:6e:e7:8e:d2:7f:f7:c8:46:cb:68:
        54:76:85:60:89:de:5b:61:df:59:f0:bc:69:e6:06:02:9f:ff:
        42:37:1d:b0:e4:f1:9f:b7:46:d4:07:e7:8f:85:2d:3b:1c:57:
        8a:53:5d:cd:4e:eb:ab:bd:0d:22:28:e7:0c:15:86:ec:57:bd:
        f4:74:6c:ab
-----BEGIN CERTIFICATE-----
MIIEKTCCAxGgAwIBAgIBAjALBgkqhkiG9w0BAQUwgbUxCzAJBgNVBAYTAlVTMRYw
FAYDVQQKEw1OZXRmbGl4LCBJbmMuMTkwNwYDVQQLEzAoYykgMjAwNSBOZXRmbGl4
LCBJbmMuIC0gRm9yIGF1dGhvcml6ZWQgdXNlIG9ubHkxJDAiBgNVBAsTG0VsZWN0
cm9uaWMgRGVsaXZlcnkgU2VydmljZTEtMCsGA1UEAxMkUHJpbWFyeSBDZXJ0aWZp
Y2F0aW9uIEF1dGhvcml0eSAoQjEpMB4XDTA1MDUyMjE2NTY0OFoXDTIwMDEwMTAw
MDAwMFowgbQxCzAJBgNVBAYTAlVTMRYwFAYDVQQKEw1OZXRmbGl4LCBJbmMuMTkw
NwYDVQQLEzAoYykgMjAwNSBOZXRmbGl4LCBJbmMuIC0gRm9yIGF1dGhvcml6ZWQg
dXNlIG9ubHkxJDAiBgNVBAsTG0VsZWN0cm9uaWMgRGVsaXZlcnkgU2VydmljZTEs
MCoGA1UEAxMjU2VydmVyIENlcnRpZmljYXRpb24gQXV0aG9yaXR5IChCMSkwggEh
MA0GCSqGSIb3DQEBAQUAA4IBDgAwggEJAoIBAEOM4oFofu3IJ7f9PGB8SQshUySm
4KWziIw1MxD18A++ephLRaYgywMZ2pVmKhM9oh8SaQalS7JoktbEBoJo0KPJVU4k
bPifc3iVJ2JQVovRav/hoB9ZMG1KdF8SvCXD3G1xmq8CuYN7CYOJB6AeCy0SJqVB
lY+/he0CnA34Pw6gPRxwbEvqct6GHuwlGUVMACSDTPcuZ993OShXMs0LQqXGKeKl
wu8V8Q0btOX3/JLT0HMl3UaCx3WcymDoXE0oZqVTj5zg9e87N6ppcfnnRCL/lZy2
oXRIsgAchmEA7vGoWnH+kaBp5J5XdwD8fYmRuRQT2eh4QwxjY3/aR48BXFsCAwEA
AaNGMEQwDwYDVR0PAQH/BAUDAweGADASBgNVHRMBAf8ECDAGAQH/AgEBMB0GA1Ud
DgQWBBS3mf/66shs1ELrgBK3rIu83uYyfTANBgkqhkiG9w0BAQUFAAOCAQEAcK9M
JKRGk4mj4zAuXZBEz9ghq7oZNwGpBy95686ZghW2wamEjwrqpnQOUvCEhQ0//AqF
Bey/swGXvR/HMtf/t+fQj7l159clBwUnx2F2Plnq0DOdTIRKFQ3zoJP994E/rDLw
YgvbynsAXtv1G84xJQ0ExeMZueVpC1BoSQMeA22MGm3X3znxWgLe3UNm2iaPWfGk
+eAUA5f7YE6EkanQkatuiGOoz/Jecs35pKYU6/GIHmwn4nTXYYkzWXtu547Sf/fI
RstoVHaFYIneW2HfWfC8aeYGAp//QjcdsOTxn7dG1Afnj4UtOxxXilNdzU7rq70N
IijnDBWG7Fe99HRsqw==
-----END CERTIFICATE-----

Certificate:
    Data:
        Version: 3 (0x2)
        Serial Number:
            8c:0e:14:1f:82:65:ad:09
        Signature Algorithm: sha1WithRSAEncryption
        Issuer: CN=Primary Certificate Authority (2008), O=Netflix Inc, OU=Electronic Delivery, ST=California, C=US, L=Los Gatos
        Validity
            Not Before: Aug 20 01:31:50 2008 GMT
            Not After : Aug 15 01:31:50 2028 GMT
        Subject: CN=Primary Certificate Authority (2008), O=Netflix Inc, OU=Electronic Delivery, ST=California, C=US, L=Los Gatos
        Subject Public Key Info:
            Public Key Algorithm: rsaEncryption
            RSA Public Key: (2048 bit)
                Modulus (2048 bit):
                    00:bb:ae:6e:0c:c5:18:52:7c:d4:c0:3d:53:d1:c0:
                    83:f7:d7:aa:89:9b:0a:b8:ed:bd:30:ae:95:6a:71:
                    28:51:19:92:3b:c2:a9:55:7d:00:30:61:2d:f9:2c:
                    0d:eb:af:83:3c:24:17:84:2a:ce:f7:e0:33:4e:1d:
                    bf:2f:cc:92:82:e3:d7:ae:b7:0f:b2:e6:7b:40:53:
                    30:c4:1c:79:ec:6b:27:66:31:4a:3a:a4:df:e9:56:
                    bc:70:c7:25:48:d9:fb:39:1f:bf:02:91:8c:e7:b0:
                    19:4a:40:d4:b9:80:e7:b4:85:3e:cb:b3:53:20:bd:
                    a3:a6:69:53:07:63:fb:17:25:ff:d0:ec:aa:19:88:
                    5b:e6:be:82:c4:ab:9a:b5:bc:31:1a:62:5a:9d:6c:
                    93:f5:e1:d8:d4:c6:37:7b:ba:71:d0:cb:91:7c:e1:
                    ab:6e:67:cc:ae:5f:21:9f:de:55:fd:eb:ee:0e:d8:
                    37:f8:c3:3d:7f:9a:e3:7c:6b:83:ee:e0:24:e1:65:
                    5b:5a:8a:f0:ed:2c:6a:3f:4e:0f:b0:7f:fb:50:6e:
                    3e:4d:30:c8:f2:90:00:13:3c:73:cb:dd:1f:5d:e5:
                    50:c8:82:12:c5:d6:d0:0f:6c:37:1f:72:a7:af:07:
                    81:1b:67:6e:cd:b6:0e:7c:7e:87:8e:4e:a3:95:3f:
                    5c:5d
                Exponent: 65537 (0x10001)
        X509v3 extensions:
            X509v3 Basic Constraints: critical
                CA:TRUE
            X509v3 Key Usage: critical
                Digital Signature, Certificate Sign, CRL Sign
            X509v3 Subject Key Identifier: 
                92:25:BC:28:14:C0:CB:21:64:17:A7:3B:38:41:8F:96:7D:D6:83:2A
    Signature Algorithm: sha1WithRSAEncryption
        28:6e:ec:ca:a1:47:23:16:37:bb:87:3d:70:4b:00:a8:00:55:
        9a:b1:c1:48:c3:4e:c9:a6:5d:74:ab:03:92:20:9d:98:89:1b:
        17:a3:f0:eb:29:b2:eb:bd:45:c1:be:b8:ed:7c:0b:76:b1:b4:
        b4:34:2c:10:46:30:ac:32:07:23:14:04:49:d4:f2:d8:b9:48:
        59:3b:78:fb:e4:16:13:e4:70:00:af:13:c6:a3:8b:eb:37:7e:
        fa:a5:cb:f7:47:62:f2:57:0e:bc:df:2a:98:dc:26:82:9b:fb:
        4f:52:c6:1a:7e:9e:6f:37:bc:d7:b4:4f:be:56:69:c8:4a:0a:
        67:df:39:d0:eb:7c:d9:6d:c4:5f:6f:ce:bf:a7:9f:c7:50:50:
        ab:5c:cc:b1:6e:aa:09:4c:ab:37:68:5c:ae:dc:21:68:59:57:
        fd:7b:81:be:a7:6f:dd:1b:d5:8e:c8:3b:f8:33:d6:89:fd:8c:
        ef:4c:05:fd:8e:f2:56:2b:93:6e:9a:b1:e9:e6:5b:dc:af:33:
        fd:3a:c3:8f:b6:65:c8:e5:56:fd:54:82:cc:74:92:af:9c:bb:
        98:e6:dd:c7:43:ad:7c:0f:62:9e:15:17:1a:b4:90:e7:a7:a3:
        31:1f:df:a3:a3:b3:83:a1:62:b3:69:15:b7:0d:e9:07:31:30:
        21:3c:00:c2
-----BEGIN CERTIFICATE-----
MIID+TCCAuGgAwIBAgIJAIwOFB+CZa0JMA0GCSqGSIb3DQEBBQUAMIGZMS0wKwYD
VQQDEyRQcmltYXJ5IENlcnRpZmljYXRlIEF1dGhvcml0eSAoMjAwOCkxFDASBgNV
BAoTC05ldGZsaXggSW5jMRwwGgYDVQQLExNFbGVjdHJvbmljIERlbGl2ZXJ5MRMw
EQYDVQQIEwpDYWxpZm9ybmlhMQswCQYDVQQGEwJVUzESMBAGA1UEBxMJTG9zIEdh
dG9zMB4XDTA4MDgyMDAxMzE1MFoXDTI4MDgxNTAxMzE1MFowgZkxLTArBgNVBAMT
JFByaW1hcnkgQ2VydGlmaWNhdGUgQXV0aG9yaXR5ICgyMDA4KTEUMBIGA1UEChML
TmV0ZmxpeCBJbmMxHDAaBgNVBAsTE0VsZWN0cm9uaWMgRGVsaXZlcnkxEzARBgNV
BAgTCkNhbGlmb3JuaWExCzAJBgNVBAYTAlVTMRIwEAYDVQQHEwlMb3MgR2F0b3Mw
ggEiMA0GCSqGSIb3DQEBAQUAA4IBDwAwggEKAoIBAQC7rm4MxRhSfNTAPVPRwIP3
16qJmwq47b0wrpVqcShRGZI7wqlVfQAwYS35LA3rr4M8JBeEKs734DNOHb8vzJKC
49eutw+y5ntAUzDEHHnsaydmMUo6pN/pVrxwxyVI2fs5H78CkYznsBlKQNS5gOe0
hT7Ls1MgvaOmaVMHY/sXJf/Q7KoZiFvmvoLEq5q1vDEaYlqdbJP14djUxjd7unHQ
y5F84atuZ8yuXyGf3lX96+4O2Df4wz1/muN8a4Pu4CThZVtaivDtLGo/Tg+wf/tQ
bj5NMMjykAATPHPL3R9d5VDIghLF1tAPbDcfcqevB4EbZ27Ntg58foeOTqOVP1xd
AgMBAAGjQjBAMA8GA1UdEwEB/wQFMAMBAf8wDgYDVR0PAQH/BAQDAgGGMB0GA1Ud
DgQWBBSSJbwoFMDLIWQXpzs4QY+WfdaDKjANBgkqhkiG9w0BAQUFAAOCAQEAKG7s
yqFHIxY3u4c9cEsAqABVmrHBSMNOyaZddKsDkiCdmIkbF6Pw6ymy671Fwb647XwL
drG0tDQsEEYwrDIHIxQESdTy2LlIWTt4++QWE+RwAK8TxqOL6zd++qXL90di8lcO
vN8qmNwmgpv7T1LGGn6ebze817RPvlZpyEoKZ9850Ot82W3EX2/Ov6efx1BQq1zM
sW6qCUyrN2hcrtwhaFlX/XuBvqdv3RvVjsg7+DPWif2M70wF/Y7yViuTbpqx6eZb
3K8z/TrDj7ZlyOVW/VSCzHSSr5y7mObdx0OtfA9inhUXGrSQ56ejMR/fo6Ozg6Fi
s2kVtw3pBzEwITwAwg==
-----END CERTIFICATE-----

Certificate:
    Data:
        Version: 3 (0x2)
        Serial Number: 0 (0x0)
        Signature Algorithm: sha1WithRSAEncryption
        Issuer: CN=Primary Certificate Authority (2009), ST=California, C=US, O=Netflix Inc, OU=Electronic Delivery, L=Los Gatos
        Validity
            Not Before: Jan  1 12:30:00 2001 GMT
            Not After : Jan  1 12:30:00 2029 GMT
        Subject: CN=Primary Certificate Authority (2009), ST=California, C=US, O=Netflix Inc, OU=Electronic Delivery, L=Los Gatos
        Subject Public Key Info:
            Public Key Algorithm: rsaEncryption
            RSA Public Key: (2048 bit)
                Modulus (2048 bit):
                    00:a5:3e:21:59:c0:78:6a:c3:dc:26:62:ba:ee:68:
                    ae:65:33:68:f1:6f:b3:a7:1b:5c:4e:3c:39:26:4a:
                    df:68:b2:d9:47:06:eb:84:22:94:80:7a:07:92:bb:
                    92:1f:c8:2c:37:2c:76:79:1c:4b:5b:b9:b7:bb:fa:
                    ff:ca:bd:15:0a:e6:5f:fc:13:47:60:9b:69:08:92:
                    ec:17:08:89:eb:c4:e6:fc:56:e7:b5:13:06:22:54:
                    c6:e2:a4:cb:53:57:16:aa:ce:a7:58:9f:3a:85:14:
                    e3:9a:4d:f8:a2:1d:db:43:5b:0a:77:8e:32:a5:d7:
                    cf:04:f7:07:39:7a:5e:a4:eb:ae:ce:05:4c:3b:55:
                    31:88:d4:cd:f4:c2:02:97:ee:b5:35:a8:1f:83:f7:
                    57:dd:9d:13:55:6f:dd:2e:4b:28:6e:1a:05:f0:d4:
                    b6:99:a6:a3:72:43:d5:14:d1:b3:10:73:09:8b:72:
                    6a:18:dc:d5:9d:30:c3:78:8f:41:70:d7:5a:30:9a:
                    d5:ec:c0:6e:35:60:a4:71:72:6f:72:26:36:f2:c8:
                    39:ab:cb:59:95:17:d4:62:f4:63:1c:47:92:3e:56:
                    f7:90:b9:dc:72:2c:c2:ff:d0:f3:13:4f:ea:82:a2:
                    81:cf:86:73:26:ff:36:3d:00:49:f4:b6:60:24:0f:
                    bd:23
                Exponent: 65537 (0x10001)
        X509v3 extensions:
            X509v3 Basic Constraints: critical
                CA:TRUE
            X509v3 Key Usage: critical
                Digital Signature, Certificate Sign, CRL Sign
            X509v3 Subject Key Identifier: 
                83:3B:AD:69:B3:5B:1C:D3:DA:3B:C9:4F:05:73:19:C2:2A:8A:F0:FF
    Signature Algorithm: sha1WithRSAEncryption
        3d:7e:d5:8f:4c:c1:8b:97:d6:1e:40:7f:53:91:a7:54:ba:9a:
        45:2b:67:e7:68:13:b1:43:e8:c6:65:63:6a:b7:8b:30:c9:0c:
        4a:b0:06:b4:ff:02:1c:63:0b:2e:b8:ce:87:d1:85:32:3a:ec:
        24:ce:90:fa:62:f3:02:13:21:a6:6b:d9:3d:10:0c:e2:4c:d7:
        74:06:13:2d:15:83:e1:dc:72:60:29:06:da:c8:c3:74:64:d8:
        74:ee:c0:7e:89:1c:3a:7b:b9:93:2a:40:d1:b7:56:7b:c2:9c:
        65:51:63:a7:0f:1f:f8:00:92:93:18:e4:80:bf:a5:93:49:16:
        65:ff:ae:88:2a:23:53:75:ad:f4:ef:d9:f3:ec:66:d4:f2:1b:
        04:e1:1f:8a:b1:fe:a3:c8:16:11:20:fc:e8:28:8e:a9:91:fd:
        70:59:92:8d:7c:e2:1c:7c:48:a3:89:a0:09:3b:7d:26:c7:bc:
        87:c8:24:0c:91:36:c1:04:de:ab:7b:6d:5f:53:f9:7b:2a:c7:
        a6:1a:17:b7:0c:b6:5a:dc:7b:ed:44:be:b3:92:74:76:2d:7b:
        b4:e3:ca:9d:01:5d:df:91:30:fe:5d:0f:58:5a:9a:af:63:10:
        e3:a4:7f:51:4d:79:51:1e:bc:85:bf:3a:8e:00:90:a6:50:3c:
        35:e0:59:a0
-----BEGIN CERTIFICATE-----
MIID8TCCAtmgAwIBAgIBADANBgkqhkiG9w0BAQUFADCBmTEtMCsGA1UEAxMkUHJp
bWFyeSBDZXJ0aWZpY2F0ZSBBdXRob3JpdHkgKDIwMDkpMRMwEQYDVQQIEwpDYWxp
Zm9ybmlhMQswCQYDVQQGEwJVUzEUMBIGA1UEChMLTmV0ZmxpeCBJbmMxHDAaBgNV
BAsTE0VsZWN0cm9uaWMgRGVsaXZlcnkxEjAQBgNVBAcTCUxvcyBHYXRvczAeFw0w
MTAxMDExMjMwMDBaFw0yOTAxMDExMjMwMDBaMIGZMS0wKwYDVQQDEyRQcmltYXJ5
IENlcnRpZmljYXRlIEF1dGhvcml0eSAoMjAwOSkxEzARBgNVBAgTCkNhbGlmb3Ju
aWExCzAJBgNVBAYTAlVTMRQwEgYDVQQKEwtOZXRmbGl4IEluYzEcMBoGA1UECxMT
RWxlY3Ryb25pYyBEZWxpdmVyeTESMBAGA1UEBxMJTG9zIEdhdG9zMIIBIjANBgkq
hkiG9w0BAQEFAAOCAQ8AMIIBCgKCAQEApT4hWcB4asPcJmK67miuZTNo8W+zpxtc
Tjw5JkrfaLLZRwbrhCKUgHoHkruSH8gsNyx2eRxLW7m3u/r/yr0VCuZf/BNHYJtp
CJLsFwiJ68Tm/FbntRMGIlTG4qTLU1cWqs6nWJ86hRTjmk34oh3bQ1sKd44ypdfP
BPcHOXpepOuuzgVMO1UxiNTN9MICl+61Nagfg/dX3Z0TVW/dLksobhoF8NS2maaj
ckPVFNGzEHMJi3JqGNzVnTDDeI9BcNdaMJrV7MBuNWCkcXJvciY28sg5q8tZlRfU
YvRjHEeSPlb3kLnccizC/9DzE0/qgqKBz4ZzJv82PQBJ9LZgJA+9IwIDAQABo0Iw
QDAPBgNVHRMBAf8EBTADAQH/MA4GA1UdDwEB/wQEAwIBhjAdBgNVHQ4EFgQUgzut
abNbHNPaO8lPBXMZwiqK8P8wDQYJKoZIhvcNAQEFBQADggEBAD1+1Y9MwYuX1h5A
f1ORp1S6mkUrZ+doE7FD6MZlY2q3izDJDEqwBrT/AhxjCy64zofRhTI67CTOkPpi
8wITIaZr2T0QDOJM13QGEy0Vg+HccmApBtrIw3Rk2HTuwH6JHDp7uZMqQNG3VnvC
nGVRY6cPH/gAkpMY5IC/pZNJFmX/rogqI1N1rfTv2fPsZtTyGwThH4qx/qPIFhEg
/OgojqmR/XBZko184hx8SKOJoAk7fSbHvIfIJAyRNsEE3qt7bV9T+Xsqx6YaF7cM
tlrce+1EvrOSdHYte7Tjyp0BXd+RMP5dD1hamq9jEOOkf1FNeVEevIW/Oo4AkKZQ
PDXgWaA=
-----END CERTIFICATE-----
